target datalayout = "e-m:e-p270:32:32-p271:32:32-p272:64:64-i64:64-i128:128-f80:128-n8:16:32:64-S128"
target triple = "x86_64-pc-linux-gnu"

%struct.store_engine = type { %union.pthread_mutex_t, ptr, ptr, ptr, ptr, ptr, ptr, ptr, i64, i32, i32, i32, i32, i32, i32, i32, i32, %union.pthread_mutex_t, %struct.extstore_stats, %struct.store_maint }
%union.pthread_mutex_t = type { %struct.__pthread_mutex_s }
%struct.__pthread_mutex_s = type { i32, i32, i32, i32, i32, i16, i16, %struct.__pthread_internal_list }
%struct.__pthread_internal_list = type { ptr, ptr }
%struct.extstore_stats = type { i64, i64, i64, i64, i64, i64, i64, i64, i64, i64, i64, i64, i64, i64, i64, i64, i64, ptr }
%struct.store_maint = type { %union.pthread_mutex_t }
%struct._store_page = type { %union.pthread_mutex_t, i64, i64, i64, i32, i32, i32, i32, i32, i32, i32, i16, i8, i8, i8, ptr, ptr }

; Function Attrs: nounwind uwtable
define dso_local i32 @extstore_delete(ptr noundef %0, i32 noundef %1, i64 noundef %2, i32 noundef %3, i32 noundef %4) #0 {
  %6 = alloca ptr, align 8
  %7 = alloca i32, align 4
  %8 = alloca i64, align 8
  %9 = alloca i32, align 4
  %10 = alloca i32, align 4
  %11 = alloca ptr, align 8
  %12 = alloca ptr, align 8
  %13 = alloca i32, align 4
  store ptr %0, ptr %6, align 8, !tbaa !4
  store i32 %1, ptr %7, align 4, !tbaa !27
  store i64 %2, ptr %8, align 8, !tbaa !83
  store i32 %3, ptr %9, align 4, !tbaa !27
  store i32 %4, ptr %10, align 4, !tbaa !27
  call void @llvm.lifetime.start.p0(i64 8, ptr %11) #8
  %14 = load ptr, ptr %6, align 8, !tbaa !4
  store ptr %14, ptr %11, align 8, !tbaa !10
  call void @llvm.lifetime.start.p0(i64 8, ptr %12) #8
  %15 = load ptr, ptr %11, align 8, !tbaa !10
  %16 = getelementptr inbounds nuw %struct.store_engine, ptr %15, i32 0, i32 1
  %17 = load ptr, ptr %16, align 8, !tbaa !39
  %18 = load i32, ptr %7, align 4, !tbaa !27
  %19 = zext i32 %18 to i64
  %20 = getelementptr inbounds nuw %struct._store_page, ptr %17, i64 %19
  store ptr %20, ptr %12, align 8, !tbaa !40
  call void @llvm.lifetime.start.p0(i64 4, ptr %13) #8
  store i32 0, ptr %13, align 4, !tbaa !27
  %21 = load ptr, ptr %12, align 8, !tbaa !40
  %22 = getelementptr inbounds nuw %struct._store_page, ptr %21, i32 0, i32 0
  %23 = call i32 @pthread_mutex_lock(ptr noundef %22) #8
  %24 = load ptr, ptr %12, align 8, !tbaa !40
  %25 = getelementptr inbounds nuw %struct._store_page, ptr %24, i32 0, i32 13
  %26 = load i8, ptr %25, align 1, !tbaa !58, !range !53, !noundef !54
  %27 = trunc i8 %26 to i1
  br i1 %27, label %108, label %28

28:                                               ; preds = %5
  %29 = load ptr, ptr %12, align 8, !tbaa !40
  %30 = getelementptr inbounds nuw %struct._store_page, ptr %29, i32 0, i32 4
  %31 = load i32, ptr %30, align 8, !tbaa !48
  %32 = zext i32 %31 to i64
  %33 = load i64, ptr %8, align 8, !tbaa !83
  %34 = icmp eq i64 %32, %33
  br i1 %34, label %35, label %108

35:                                               ; preds = %28
  %36 = load ptr, ptr %12, align 8, !tbaa !40
  %37 = getelementptr inbounds nuw %struct._store_page, ptr %36, i32 0, i32 2
  %38 = load i64, ptr %37, align 8, !tbaa !50
  %39 = load i32, ptr %10, align 4, !tbaa !27
  %40 = zext i32 %39 to i64
  %41 = icmp uge i64 %38, %40
  br i1 %41, label %42, label %49

42:                                               ; preds = %35
  %43 = load i32, ptr %10, align 4, !tbaa !27
  %44 = zext i32 %43 to i64
  %45 = load ptr, ptr %12, align 8, !tbaa !40
  %46 = getelementptr inbounds nuw %struct._store_page, ptr %45, i32 0, i32 2
  %47 = load i64, ptr %46, align 8, !tbaa !50
  %48 = sub i64 %47, %44
  store i64 %48, ptr %46, align 8, !tbaa !50
  br label %52

49:                                               ; preds = %35
  %50 = load ptr, ptr %12, align 8, !tbaa !40
  %51 = getelementptr inbounds nuw %struct._store_page, ptr %50, i32 0, i32 2
  store i64 0, ptr %51, align 8, !tbaa !50
  br label %52

52:                                               ; preds = %49, %42
  %53 = load ptr, ptr %12, align 8, !tbaa !40
  %54 = getelementptr inbounds nuw %struct._store_page, ptr %53, i32 0, i32 1
  %55 = load i64, ptr %54, align 8, !tbaa !57
  %56 = load i32, ptr %9, align 4, !tbaa !27
  %57 = zext i32 %56 to i64
  %58 = icmp uge i64 %55, %57
  br i1 %58, label %59, label %66

59:                                               ; preds = %52
  %60 = load i32, ptr %9, align 4, !tbaa !27
  %61 = zext i32 %60 to i64
  %62 = load ptr, ptr %12, align 8, !tbaa !40
  %63 = getelementptr inbounds nuw %struct._store_page, ptr %62, i32 0, i32 1
  %64 = load i64, ptr %63, align 8, !tbaa !57
  %65 = sub i64 %64, %61
  store i64 %65, ptr %63, align 8, !tbaa !57
  br label %69

66:                                               ; preds = %52
  %67 = load ptr, ptr %12, align 8, !tbaa !40
  %68 = getelementptr inbounds nuw %struct._store_page, ptr %67, i32 0, i32 1
  store i64 0, ptr %68, align 8, !tbaa !57
  br label %69

69:                                               ; preds = %66, %59
  %70 = load ptr, ptr %11, align 8, !tbaa !10
  %71 = getelementptr inbounds nuw %struct.store_engine, ptr %70, i32 0, i32 17
  %72 = call i32 @pthread_mutex_lock(ptr noundef %71) #8
  %73 = load i32, ptr %10, align 4, !tbaa !27
  %74 = zext i32 %73 to i64
  %75 = load ptr, ptr %11, align 8, !tbaa !10
  %76 = getelementptr inbounds nuw %struct.store_engine, ptr %75, i32 0, i32 18
  %77 = getelementptr inbounds nuw %struct.extstore_stats, ptr %76, i32 0, i32 14
  %78 = load i64, ptr %77, align 8, !tbaa !64
  %79 = sub i64 %78, %74
  store i64 %79, ptr %77, align 8, !tbaa !64
  %80 = load i32, ptr %9, align 4, !tbaa !27
  %81 = zext i32 %80 to i64
  %82 = load ptr, ptr %11, align 8, !tbaa !10
  %83 = getelementptr inbounds nuw %struct.store_engine, ptr %82, i32 0, i32 18
  %84 = getelementptr inbounds nuw %struct.extstore_stats, ptr %83, i32 0, i32 10
  %85 = load i64, ptr %84, align 8, !tbaa !63
  %86 = sub i64 %85, %81
  store i64 %86, ptr %84, align 8, !tbaa !63
  %87 = load ptr, ptr %11, align 8, !tbaa !10
  %88 = getelementptr inbounds nuw %struct.store_engine, ptr %87, i32 0, i32 17
  %89 = call i32 @pthread_mutex_unlock(ptr noundef %88) #8
  %90 = load ptr, ptr %12, align 8, !tbaa !40
  %91 = getelementptr inbounds nuw %struct._store_page, ptr %90, i32 0, i32 1
  %92 = load i64, ptr %91, align 8, !tbaa !57
  %93 = icmp eq i64 %92, 0
  br i1 %93, label %94, label %107

94:                                               ; preds = %69
  %95 = load ptr, ptr %12, align 8, !tbaa !40
  %96 = getelementptr inbounds nuw %struct._store_page, ptr %95, i32 0, i32 5
  %97 = load i32, ptr %96, align 4, !tbaa !61
  %98 = icmp eq i32 %97, 0
  br i1 %98, label %99, label %107

99:                                               ; preds = %94
  %100 = load ptr, ptr %12, align 8, !tbaa !40
  %101 = getelementptr inbounds nuw %struct._store_page, ptr %100, i32 0, i32 12
  %102 = load i8, ptr %101, align 2, !tbaa !52, !range !53, !noundef !54
  %103 = trunc i8 %102 to i1
  br i1 %103, label %107, label %104

104:                                              ; preds = %99
  %105 = load ptr, ptr %11, align 8, !tbaa !10
  %106 = load ptr, ptr %12, align 8, !tbaa !40
  call void @_free_page(ptr noundef %105, ptr noundef %106)
  br label %107

107:                                              ; preds = %104, %99, %94, %69
  br label %109

108:                                              ; preds = %28, %5
  store i32 -1, ptr %13, align 4, !tbaa !27
  br label %109

109:                                              ; preds = %108, %107
  %110 = load ptr, ptr %12, align 8, !tbaa !40
  %111 = getelementptr inbounds nuw %struct._store_page, ptr %110, i32 0, i32 0
  %112 = call i32 @pthread_mutex_unlock(ptr noundef %111) #8
  %113 = load i32, ptr %13, align 4, !tbaa !27
  call void @llvm.lifetime.end.p0(i64 4, ptr %13) #8
  call void @llvm.lifetime.end.p0(i64 8, ptr %12) #8
  call void @llvm.lifetime.end.p0(i64 8, ptr %11) #8
  ret i32 %113
}