; Function Attrs: nounwind uwtable
define dso_local range(i32 -1, 1) i32 @extstore_delete(ptr noundef %0, i32 noundef %1, i64 noundef %2, i32 noundef %3, i32 noundef %4) local_unnamed_addr #0 {
  %6 = getelementptr inbounds nuw i8, ptr %0, i64 40
  %7 = load ptr, ptr %6, align 8, !tbaa !33
  %8 = zext i32 %1 to i64
  %9 = getelementptr inbounds nuw %struct._store_page, ptr %7, i64 %8
  %10 = tail call i32 @pthread_mutex_lock(ptr noundef %9) #13
  %11 = getelementptr inbounds nuw i8, ptr %9, i64 95
  %12 = load i8, ptr %11, align 1, !tbaa !51, !range !46, !noundef !47
  %13 = trunc nuw i8 %12 to i1
  br i1 %13, label %46, label %14

14:                                               ; preds = %5
  %15 = getelementptr inbounds nuw i8, ptr %9, i64 64
  %16 = load i32, ptr %15, align 8, !tbaa !41
  %17 = zext i32 %16 to i64
  %18 = icmp eq i64 %2, %17
  br i1 %18, label %19, label %46

19:                                               ; preds = %14
  %20 = getelementptr inbounds nuw i8, ptr %9, i64 48
  %21 = load i64, ptr %20, align 8, !tbaa !43
  %22 = zext i32 %4 to i64
  %storemerge = tail call i64 @llvm.usub.sat.i64(i64 %21, i64 %22)
  store i64 %storemerge, ptr %20, align 8, !tbaa !43
  %23 = getelementptr inbounds nuw i8, ptr %9, i64 40
  %24 = load i64, ptr %23, align 8, !tbaa !50
  %25 = zext i32 %3 to i64
  %storemerge34 = tail call i64 @llvm.usub.sat.i64(i64 %24, i64 %25)
  store i64 %storemerge34, ptr %23, align 8, !tbaa !50
  %26 = getelementptr inbounds nuw i8, ptr %0, i64 136
  %27 = tail call i32 @pthread_mutex_lock(ptr noundef nonnull %26) #13
  %28 = getelementptr inbounds nuw i8, ptr %0, i64 288
  %29 = load i64, ptr %28, align 8, !tbaa !57
  %30 = sub i64 %29, %22
  store i64 %30, ptr %28, align 8, !tbaa !57
  %31 = getelementptr inbounds nuw i8, ptr %0, i64 256
  %32 = load i64, ptr %31, align 8, !tbaa !56
  %33 = sub i64 %32, %25
  store i64 %33, ptr %31, align 8, !tbaa !56
  %34 = tail call i32 @pthread_mutex_unlock(ptr noundef nonnull %26) #13
  %35 = load i64, ptr %23, align 8, !tbaa !50
  %36 = icmp eq i64 %35, 0
  br i1 %36, label %37, label %46

37:                                               ; preds = %19
  %38 = getelementptr inbounds nuw i8, ptr %9, i64 68
  %39 = load i32, ptr %38, align 4, !tbaa !54
  %40 = icmp eq i32 %39, 0
  br i1 %40, label %41, label %46

41:                                               ; preds = %37
  %42 = getelementptr inbounds nuw i8, ptr %9, i64 94
  %43 = load i8, ptr %42, align 2, !tbaa !45, !range !46, !noundef !47
  %44 = trunc nuw i8 %43 to i1
  br i1 %44, label %46, label %45

45:                                               ; preds = %41
  tail call fastcc void @_free_page(ptr noundef nonnull %0, ptr noundef nonnull %9)
  br label %46

46:                                               ; preds = %5, %14, %19, %37, %41, %45
  %.0 = phi i32 [ 0, %41 ], [ 0, %45 ], [ 0, %37 ], [ 0, %19 ], [ -1, %14 ], [ -1, %5 ]
  %47 = tail call i32 @pthread_mutex_unlock(ptr noundef nonnull %9) #13
  ret i32 %.0
}